; Function Attrs: nounwind uwtable
define hidden void @zim_Phar_getSupportedCompression(ptr noundef readonly captures(none) %0, ptr noundef %1) #0 {
  %3 = getelementptr inbounds nuw i8, ptr %0, i64 44
  %4 = load i32, ptr %3, align 4, !tbaa !8
  %.not = icmp eq i32 %4, 0
  br i1 %.not, label %.critedge, label %5, !prof !105

5:                                                ; preds = %2
  tail call void @zend_wrong_parameters_none_error() #20
  %6 = load ptr, ptr getelementptr inbounds nuw (i8, ptr @executor_globals, i64 960), align 8, !tbaa !9
  %7 = icmp ne ptr %6, null
  tail call void @llvm.assume(i1 %7)
  br label %19

.critedge:                                        ; preds = %2
  %8 = tail call ptr @_zend_new_array_0() #20
  store ptr %8, ptr %1, align 8, !tbaa !8
  %9 = getelementptr inbounds nuw i8, ptr %1, i64 8
  store i32 775, ptr %9, align 8, !tbaa !8
  tail call void @phar_request_initialize() #20
  %10 = load i8, ptr getelementptr inbounds nuw (i8, ptr @phar_globals, i64 195), align 1, !tbaa !106, !range !48, !noundef !49
  %11 = trunc nuw i8 %10 to i1
  br i1 %11, label %12, label %14

12:                                               ; preds = %.critedge
  %13 = tail call i32 @add_next_index_stringl(ptr noundef nonnull %1, ptr noundef nonnull @.str.62, i64 noundef 2) #20
  br label %14

14:                                               ; preds = %12, %.critedge
  %15 = load i8, ptr getelementptr inbounds nuw (i8, ptr @phar_globals, i64 196), align 4, !tbaa !107, !range !48, !noundef !49
  %16 = trunc nuw i8 %15 to i1
  br i1 %16, label %17, label %19

17:                                               ; preds = %14
  %18 = tail call i32 @add_next_index_stringl(ptr noundef nonnull %1, ptr noundef nonnull @.str.63, i64 noundef 5) #20
  br label %19

19:                                               ; preds = %17, %14, %5
  ret void
}